target datalayout = "e-m:e-p270:32:32-p271:32:32-p272:64:64-i64:64-i128:128-f80:128-n8:16:32:64-S128"
target triple = "x86_64-pc-linux-gnu"

; Function Attrs: nounwind uwtable
define internal void @SDL_FillSurfaceRect3(ptr noundef %0, i32 noundef %1, i32 noundef %2, i32 noundef %3, i32 noundef %4) #0 {
  %6 = alloca ptr, align 8
  %7 = alloca i32, align 4
  %8 = alloca i32, align 4
  %9 = alloca i32, align 4
  %10 = alloca i32, align 4
  %11 = alloca i8, align 1
  %12 = alloca i8, align 1
  %13 = alloca i8, align 1
  %14 = alloca i32, align 4
  %15 = alloca ptr, align 8
  store ptr %0, ptr %6, align 8
  store i32 %1, ptr %7, align 4
  store i32 %2, ptr %8, align 4
  store i32 %3, ptr %9, align 4
  store i32 %4, ptr %10, align 4
  call void @llvm.lifetime.start.p0(i64 1, ptr %11) #5
  %16 = load i32, ptr %8, align 4
  %17 = and i32 %16, 255
  %18 = trunc i32 %17 to i8
  store i8 %18, ptr %11, align 1
  call void @llvm.lifetime.start.p0(i64 1, ptr %12) #5
  %19 = load i32, ptr %8, align 4
  %20 = lshr i32 %19, 8
  %21 = and i32 %20, 255
  %22 = trunc i32 %21 to i8
  store i8 %22, ptr %12, align 1
  call void @llvm.lifetime.start.p0(i64 1, ptr %13) #5
  %23 = load i32, ptr %8, align 4
  %24 = lshr i32 %23, 16
  %25 = and i32 %24, 255
  %26 = trunc i32 %25 to i8
  store i8 %26, ptr %13, align 1
  call void @llvm.lifetime.start.p0(i64 4, ptr %14) #5
  call void @llvm.lifetime.start.p0(i64 8, ptr %15) #5
  store ptr null, ptr %15, align 8
  br label %27

27:                                               ; preds = %48, %5
  %28 = load i32, ptr %10, align 4
  %29 = add nsw i32 %28, -1
  store i32 %29, ptr %10, align 4
  %30 = icmp ne i32 %28, 0
  br i1 %30, label %31, label %53

31:                                               ; preds = %27
  %32 = load i32, ptr %9, align 4
  store i32 %32, ptr %14, align 4
  %33 = load ptr, ptr %6, align 8
  store ptr %33, ptr %15, align 8
  br label %34

34:                                               ; preds = %38, %31
  %35 = load i32, ptr %14, align 4
  %36 = add nsw i32 %35, -1
  store i32 %36, ptr %14, align 4
  %37 = icmp ne i32 %35, 0
  br i1 %37, label %38, label %48

38:                                               ; preds = %34
  %39 = load i8, ptr %11, align 1
  %40 = load ptr, ptr %15, align 8
  %41 = getelementptr inbounds nuw i8, ptr %40, i32 1
  store ptr %41, ptr %15, align 8
  store i8 %39, ptr %40, align 1
  %42 = load i8, ptr %12, align 1
  %43 = load ptr, ptr %15, align 8
  %44 = getelementptr inbounds nuw i8, ptr %43, i32 1
  store ptr %44, ptr %15, align 8
  store i8 %42, ptr %43, align 1
  %45 = load i8, ptr %13, align 1
  %46 = load ptr, ptr %15, align 8
  %47 = getelementptr inbounds nuw i8, ptr %46, i32 1
  store ptr %47, ptr %15, align 8
  store i8 %45, ptr %46, align 1
  br label %34, !llvm.loop !7

48:                                               ; preds = %34
  %49 = load i32, ptr %7, align 4
  %50 = load ptr, ptr %6, align 8
  %51 = sext i32 %49 to i64
  %52 = getelementptr inbounds i8, ptr %50, i64 %51
  store ptr %52, ptr %6, align 8
  br label %27, !llvm.loop !8

53:                                               ; preds = %27
  call void @llvm.lifetime.end.p0(i64 8, ptr %15) #5
  call void @llvm.lifetime.end.p0(i64 4, ptr %14) #5
  call void @llvm.lifetime.end.p0(i64 1, ptr %13) #5
  call void @llvm.lifetime.end.p0(i64 1, ptr %12) #5
  call void @llvm.lifetime.end.p0(i64 1, ptr %11) #5
  ret void
}