; Function Attrs: nofree norecurse nosync nounwind memory(argmem: write) uwtable
define internal void @SDL_FillSurfaceRect3(ptr noundef writeonly captures(none) %0, i32 noundef %1, i32 noundef %2, i32 noundef %3, i32 noundef %4) unnamed_addr #4 {
  %6 = trunc i32 %2 to i8
  %7 = lshr i32 %2, 8
  %8 = trunc i32 %7 to i8
  %9 = lshr i32 %2, 16
  %10 = trunc i32 %9 to i8
  %.not21 = icmp eq i32 %4, 0
  br i1 %.not21, label %._crit_edge23, label %.preheader.lr.ph

.preheader.lr.ph:                                 ; preds = %5
  %.not1718 = icmp eq i32 %3, 0
  %11 = sext i32 %1 to i64
  br i1 %.not1718, label %._crit_edge23, label %.preheader

.preheader:                                       ; preds = %.preheader.lr.ph, %._crit_edge
  %.in = phi i32 [ %12, %._crit_edge ], [ %4, %.preheader.lr.ph ]
  %.01522 = phi ptr [ %18, %._crit_edge ], [ %0, %.preheader.lr.ph ]
  %12 = add nsw i32 %.in, -1
  br label %13

13:                                               ; preds = %.preheader, %13
  %.020 = phi ptr [ %.01522, %.preheader ], [ %17, %13 ]
  %.01419 = phi i32 [ %3, %.preheader ], [ %14, %13 ]
  %14 = add nsw i32 %.01419, -1
  %15 = getelementptr inbounds nuw i8, ptr %.020, i64 1
  store i8 %6, ptr %.020, align 1
  %16 = getelementptr inbounds nuw i8, ptr %.020, i64 2
  store i8 %8, ptr %15, align 1
  %17 = getelementptr inbounds nuw i8, ptr %.020, i64 3
  store i8 %10, ptr %16, align 1
  %.not17 = icmp eq i32 %14, 0
  br i1 %.not17, label %._crit_edge, label %13, !llvm.loop !8

._crit_edge:                                      ; preds = %13
  %18 = getelementptr inbounds i8, ptr %.01522, i64 %11
  %.not = icmp eq i32 %12, 0
  br i1 %.not, label %._crit_edge23, label %.preheader, !llvm.loop !9

._crit_edge23:                                    ; preds = %._crit_edge, %.preheader.lr.ph, %5
  ret void
}